target datalayout = "e-m:e-p270:32:32-p271:32:32-p272:64:64-i64:64-i128:128-f80:128-n8:16:32:64-S128"
target triple = "x86_64-pc-linux-gnu"

@.str.3 = private unnamed_addr constant [2 x i8] c"\0A\00", align 1
@.str.4 = private unnamed_addr constant [39 x i8] c"    write_xaiger [options] [filename]\0A\00", align 1
@.str.5 = private unnamed_addr constant [82 x i8] c"Write the top module (according to the (* top *) attribute or if only one module\0A\00", align 1
@.str.6 = private unnamed_addr constant [79 x i8] c"is currently selected) to an XAIGER file. Any non $_NOT_, $_AND_, (optionally\0A\00", align 1
@.str.7 = private unnamed_addr constant [81 x i8] c"$_DFF_N_, $_DFF_P_), or non (* abc9_box *) cells will be converted into psuedo-\0A\00", align 1
@.str.8 = private unnamed_addr constant [80 x i8] c"inputs and pseudo-outputs. Whitebox contents will be taken from the equivalent\0A\00", align 1
@.str.9 = private unnamed_addr constant [51 x i8] c"module in the '$abc9_holes' design, if it exists.\0A\00", align 1
@.str.10 = private unnamed_addr constant [12 x i8] c"    -ascii\0A\00", align 1
@.str.11 = private unnamed_addr constant [45 x i8] c"        write ASCII version of AIGER format\0A\00", align 1
@.str.12 = private unnamed_addr constant [21 x i8] c"    -map <filename>\0A\00", align 1
@.str.13 = private unnamed_addr constant [55 x i8] c"        write an extra file with port and box symbols\0A\00", align 1
@.str.14 = private unnamed_addr constant [10 x i8] c"    -dff\0A\00", align 1
@.str.15 = private unnamed_addr constant [33 x i8] c"        write $_DFF_[NP]_ cells\0A\00", align 1

; Function Attrs: mustprogress uwtable
define internal void @_ZN12_GLOBAL__N_113XAigerBackend4helpEv(ptr noundef nonnull align 8 dereferenceable(136) %0) unnamed_addr #4 align 2 {
  %2 = alloca ptr, align 8
  store ptr %0, ptr %2, align 8
  call void (ptr, ...) @_ZN5Yosys3logEPKcz(ptr noundef @.str.3)
  call void (ptr, ...) @_ZN5Yosys3logEPKcz(ptr noundef @.str.4)
  call void (ptr, ...) @_ZN5Yosys3logEPKcz(ptr noundef @.str.3)
  call void (ptr, ...) @_ZN5Yosys3logEPKcz(ptr noundef @.str.5)
  call void (ptr, ...) @_ZN5Yosys3logEPKcz(ptr noundef @.str.6)
  call void (ptr, ...) @_ZN5Yosys3logEPKcz(ptr noundef @.str.7)
  call void (ptr, ...) @_ZN5Yosys3logEPKcz(ptr noundef @.str.8)
  call void (ptr, ...) @_ZN5Yosys3logEPKcz(ptr noundef @.str.9)
  call void (ptr, ...) @_ZN5Yosys3logEPKcz(ptr noundef @.str.3)
  call void (ptr, ...) @_ZN5Yosys3logEPKcz(ptr noundef @.str.10)
  call void (ptr, ...) @_ZN5Yosys3logEPKcz(ptr noundef @.str.11)
  call void (ptr, ...) @_ZN5Yosys3logEPKcz(ptr noundef @.str.3)
  call void (ptr, ...) @_ZN5Yosys3logEPKcz(ptr noundef @.str.12)
  call void (ptr, ...) @_ZN5Yosys3logEPKcz(ptr noundef @.str.13)
  call void (ptr, ...) @_ZN5Yosys3logEPKcz(ptr noundef @.str.3)
  call void (ptr, ...) @_ZN5Yosys3logEPKcz(ptr noundef @.str.14)
  call void (ptr, ...) @_ZN5Yosys3logEPKcz(ptr noundef @.str.15)
  call void (ptr, ...) @_ZN5Yosys3logEPKcz(ptr noundef @.str.3)
  ret void
}